target datalayout = "e-m:e-p270:32:32-p271:32:32-p272:64:64-i64:64-i128:128-f80:128-n8:16:32:64-S128"
target triple = "x86_64-pc-linux-gnu"

%struct.ObjectAddress = type { i32, i32, i32 }
%struct.RelationData = type { %struct.RelFileLocator, ptr, i32, i32, i8, i8, i8, i8, i8, i32, i32, i32, i32, ptr, ptr, i32, %struct.LockInfoData, ptr, ptr, ptr, ptr, ptr, i8, ptr, ptr, ptr, ptr, ptr, ptr, i32, ptr, i8, ptr, ptr, i32, i8, i32, ptr, i8, ptr, ptr, ptr, ptr, ptr, ptr, ptr, i32, ptr, ptr, ptr, ptr, ptr, ptr, ptr, ptr, ptr, ptr, ptr, ptr, ptr, ptr, ptr, ptr, ptr, ptr, ptr, i32, i8, ptr }
%struct.RelFileLocator = type { i32, i32, i32 }
%struct.LockInfoData = type { %struct.LockRelId }
%struct.LockRelId = type { i32, i32 }
%struct.ForeignDataWrapper = type { i32, i32, ptr, i32, i32, ptr }
%struct.CreateUserMappingStmt = type { i32, ptr, ptr, i8, ptr }
%struct.RoleSpec = type { i32, i32, ptr, i32 }
%struct.ForeignServer = type { i32, i32, i32, ptr, ptr, ptr, ptr }

@.str.1 = private unnamed_addr constant [14 x i8] c"foreigncmds.c\00", align 1
@object_access_hook = external global ptr, align 8
@InvalidObjectAddress = external constant %struct.ObjectAddress, align 4
@.str.17 = private unnamed_addr constant [63 x i8] c"user mapping for \22%s\22 already exists for server \22%s\22, skipping\00", align 1
@.str.18 = private unnamed_addr constant [7 x i8] c"public\00", align 1
@__func__.CreateUserMapping = private unnamed_addr constant [18 x i8] c"CreateUserMapping\00", align 1
@.str.19 = private unnamed_addr constant [53 x i8] c"user mapping for \22%s\22 already exists for server \22%s\22\00", align 1

; Function Attrs: inlinehint nounwind uwtable
define internal ptr @DatumGetPointer(i64 noundef %0) #6 {
  %2 = alloca i64, align 8
  store i64 %0, ptr %2, align 8
  %3 = load i64, ptr %2, align 8
  %4 = inttoptr i64 %3 to ptr
  ret ptr %4
}

; Function Attrs: inlinehint nounwind uwtable
define internal i64 @PointerGetDatum(ptr noundef %0) #6 {
  %2 = alloca ptr, align 8
  store ptr %0, ptr %2, align 8
  %3 = load ptr, ptr %2, align 8
  %4 = ptrtoint ptr %3 to i64
  ret i64 %4
}

; Function Attrs: inlinehint nounwind uwtable
define internal i64 @ObjectIdGetDatum(i32 noundef %0) #6 {
  %2 = alloca i32, align 4
  store i32 %0, ptr %2, align 4
  %3 = load i32, ptr %2, align 4
  %4 = zext i32 %3 to i64
  ret i64 %4
}

; Function Attrs: nounwind uwtable
define internal void @user_mapping_ddl_aclcheck(i32 noundef %0, i32 noundef %1, ptr noundef %2) #0 {
  %4 = alloca i32, align 4
  %5 = alloca i32, align 4
  %6 = alloca ptr, align 8
  %7 = alloca i32, align 4
  %8 = alloca i32, align 4
  store i32 %0, ptr %4, align 4
  store i32 %1, ptr %5, align 4
  store ptr %2, ptr %6, align 8
  call void @llvm.lifetime.start.p0(i64 4, ptr %7) #9
  %9 = call i32 @GetUserId()
  store i32 %9, ptr %7, align 4
  %10 = load i32, ptr %5, align 4
  %11 = load i32, ptr %7, align 4
  %12 = call zeroext i1 @object_ownercheck(i32 noundef 1417, i32 noundef %10, i32 noundef %11)
  br i1 %12, label %30, label %13

13:                                               ; preds = %3
  %14 = load i32, ptr %4, align 4
  %15 = load i32, ptr %7, align 4
  %16 = icmp eq i32 %14, %15
  br i1 %16, label %17, label %27

17:                                               ; preds = %13
  call void @llvm.lifetime.start.p0(i64 4, ptr %8) #9
  %18 = load i32, ptr %5, align 4
  %19 = load i32, ptr %7, align 4
  %20 = call i32 @object_aclcheck(i32 noundef 1417, i32 noundef %18, i32 noundef %19, i64 noundef 256)
  store i32 %20, ptr %8, align 4
  %21 = load i32, ptr %8, align 4
  %22 = icmp ne i32 %21, 0
  br i1 %22, label %23, label %26

23:                                               ; preds = %17
  %24 = load i32, ptr %8, align 4
  %25 = load ptr, ptr %6, align 8
  call void @aclcheck_error(i32 noundef %24, i32 noundef 17, ptr noundef %25)
  br label %26

26:                                               ; preds = %23, %17
  call void @llvm.lifetime.end.p0(i64 4, ptr %8) #9
  br label %29

27:                                               ; preds = %13
  %28 = load ptr, ptr %6, align 8
  call void @aclcheck_error(i32 noundef 2, i32 noundef 17, ptr noundef %28)
  br label %29

29:                                               ; preds = %27, %26
  br label %30

30:                                               ; preds = %29, %3
  call void @llvm.lifetime.end.p0(i64 4, ptr %7) #9
  ret void
}

; Function Attrs: nounwind uwtable
define dso_local { i64, i32 } @CreateUserMapping(ptr noundef %0) #0 {
  %2 = alloca %struct.ObjectAddress, align 4
  %3 = alloca ptr, align 8
  %4 = alloca ptr, align 8
  %5 = alloca i64, align 8
  %6 = alloca [4 x i64], align 16
  %7 = alloca [4 x i8], align 1
  %8 = alloca ptr, align 8
  %9 = alloca i32, align 4
  %10 = alloca i32, align 4
  %11 = alloca %struct.ObjectAddress, align 4
  %12 = alloca %struct.ObjectAddress, align 4
  %13 = alloca ptr, align 8
  %14 = alloca ptr, align 8
  %15 = alloca ptr, align 8
  %16 = alloca i32, align 4
  %17 = alloca { i64, i32 }, align 8
  store ptr %0, ptr %3, align 8
  call void @llvm.lifetime.start.p0(i64 8, ptr %4) #9
  call void @llvm.lifetime.start.p0(i64 8, ptr %5) #9
  call void @llvm.lifetime.start.p0(i64 32, ptr %6) #9
  call void @llvm.lifetime.start.p0(i64 4, ptr %7) #9
  call void @llvm.lifetime.start.p0(i64 8, ptr %8) #9
  call void @llvm.lifetime.start.p0(i64 4, ptr %9) #9
  call void @llvm.lifetime.start.p0(i64 4, ptr %10) #9
  call void @llvm.lifetime.start.p0(i64 12, ptr %11) #9
  call void @llvm.lifetime.start.p0(i64 12, ptr %12) #9
  call void @llvm.lifetime.start.p0(i64 8, ptr %13) #9
  call void @llvm.lifetime.start.p0(i64 8, ptr %14) #9
  call void @llvm.lifetime.start.p0(i64 8, ptr %15) #9
  %18 = load ptr, ptr %3, align 8
  %19 = getelementptr inbounds nuw %struct.CreateUserMappingStmt, ptr %18, i32 0, i32 1
  %20 = load ptr, ptr %19, align 8
  store ptr %20, ptr %15, align 8
  %21 = call ptr @table_open(i32 noundef 1418, i32 noundef 3)
  store ptr %21, ptr %4, align 8
  %22 = load ptr, ptr %15, align 8
  %23 = getelementptr inbounds nuw %struct.RoleSpec, ptr %22, i32 0, i32 1
  %24 = load i32, ptr %23, align 4
  %25 = icmp eq i32 %24, 4
  br i1 %25, label %26, label %27

26:                                               ; preds = %1
  store i32 0, ptr %9, align 4
  br label %32

27:                                               ; preds = %1
  %28 = load ptr, ptr %3, align 8
  %29 = getelementptr inbounds nuw %struct.CreateUserMappingStmt, ptr %28, i32 0, i32 1
  %30 = load ptr, ptr %29, align 8
  %31 = call i32 @get_rolespec_oid(ptr noundef %30, i1 noundef zeroext false)
  store i32 %31, ptr %9, align 4
  br label %32

32:                                               ; preds = %27, %26
  %33 = load ptr, ptr %3, align 8
  %34 = getelementptr inbounds nuw %struct.CreateUserMappingStmt, ptr %33, i32 0, i32 2
  %35 = load ptr, ptr %34, align 8
  %36 = call ptr @GetForeignServerByName(ptr noundef %35, i1 noundef zeroext false)
  store ptr %36, ptr %13, align 8
  %37 = load i32, ptr %9, align 4
  %38 = load ptr, ptr %13, align 8
  %39 = getelementptr inbounds nuw %struct.ForeignServer, ptr %38, i32 0, i32 0
  %40 = load i32, ptr %39, align 8
  %41 = load ptr, ptr %3, align 8
  %42 = getelementptr inbounds nuw %struct.CreateUserMappingStmt, ptr %41, i32 0, i32 2
  %43 = load ptr, ptr %42, align 8
  call void @user_mapping_ddl_aclcheck(i32 noundef %37, i32 noundef %40, ptr noundef %43)
  %44 = load i32, ptr %9, align 4
  %45 = call i64 @ObjectIdGetDatum(i32 noundef %44)
  %46 = load ptr, ptr %13, align 8
  %47 = getelementptr inbounds nuw %struct.ForeignServer, ptr %46, i32 0, i32 0
  %48 = load i32, ptr %47, align 8
  %49 = call i64 @ObjectIdGetDatum(i32 noundef %48)
  %50 = call i32 @GetSysCacheOid(i32 noundef 84, i16 noundef signext 1, i64 noundef %45, i64 noundef %49, i64 noundef 0, i64 noundef 0)
  store i32 %50, ptr %10, align 4
  %51 = load i32, ptr %10, align 4
  %52 = icmp ne i32 %51, 0
  br i1 %52, label %53, label %106

53:                                               ; preds = %32
  %54 = load ptr, ptr %3, align 8
  %55 = getelementptr inbounds nuw %struct.CreateUserMappingStmt, ptr %54, i32 0, i32 3
  %56 = load i8, ptr %55, align 8, !range !8, !noundef !9
  %57 = trunc i8 %56 to i1
  br i1 %57, label %58, label %82

58:                                               ; preds = %53
  br label %59

59:                                               ; preds = %58
  br i1 false, label %60, label %62

60:                                               ; preds = %59
  %61 = call zeroext i1 @errstart_cold(i32 noundef 18, ptr noundef null) #11
  br i1 %61, label %64, label %78

62:                                               ; preds = %59
  %63 = call zeroext i1 @errstart(i32 noundef 18, ptr noundef null)
  br i1 %63, label %64, label %78

64:                                               ; preds = %62, %60
  %65 = call i32 @errcode(i32 noundef 290948)
  %66 = load i32, ptr %9, align 4
  %67 = icmp ne i32 %66, 0
  br i1 %67, label %68, label %71

68:                                               ; preds = %64
  %69 = load i32, ptr %9, align 4
  %70 = call ptr @GetUserNameFromId(i32 noundef %69, i1 noundef zeroext false)
  br label %72

71:                                               ; preds = %64
  br label %72

72:                                               ; preds = %71, %68
  %73 = phi ptr [ %70, %68 ], [ @.str.18, %71 ]
  %74 = load ptr, ptr %3, align 8
  %75 = getelementptr inbounds nuw %struct.CreateUserMappingStmt, ptr %74, i32 0, i32 2
  %76 = load ptr, ptr %75, align 8
  %77 = call i32 (ptr, ...) @errmsg(ptr noundef @.str.17, ptr noundef %73, ptr noundef %76)
  call void @errfinish(ptr noundef @.str.1, i32 noundef 1146, ptr noundef @__func__.CreateUserMapping)
  br label %78

78:                                               ; preds = %72, %62, %60
  br label %79

79:                                               ; preds = %78
  br label %80

80:                                               ; preds = %79
  %81 = load ptr, ptr %4, align 8
  call void @table_close(ptr noundef %81, i32 noundef 3)
  call void @llvm.memcpy.p0.p0.i64(ptr align 4 %2, ptr align 4 @InvalidObjectAddress, i64 12, i1 false)
  store i32 1, ptr %16, align 4
  br label %177

82:                                               ; preds = %53
  br label %83

83:                                               ; preds = %82
  br i1 true, label %84, label %86

84:                                               ; preds = %83
  %85 = call zeroext i1 @errstart_cold(i32 noundef 21, ptr noundef null) #11
  br i1 %85, label %88, label %102

86:                                               ; preds = %83
  %87 = call zeroext i1 @errstart(i32 noundef 21, ptr noundef null)
  br i1 %87, label %88, label %102

88:                                               ; preds = %86, %84
  %89 = call i32 @errcode(i32 noundef 290948)
  %90 = load i32, ptr %9, align 4
  %91 = icmp ne i32 %90, 0
  br i1 %91, label %92, label %95

92:                                               ; preds = %88
  %93 = load i32, ptr %9, align 4
  %94 = call ptr @GetUserNameFromId(i32 noundef %93, i1 noundef zeroext false)
  br label %96

95:                                               ; preds = %88
  br label %96

96:                                               ; preds = %95, %92
  %97 = phi ptr [ %94, %92 ], [ @.str.18, %95 ]
  %98 = load ptr, ptr %3, align 8
  %99 = getelementptr inbounds nuw %struct.CreateUserMappingStmt, ptr %98, i32 0, i32 2
  %100 = load ptr, ptr %99, align 8
  %101 = call i32 (ptr, ...) @errmsg(ptr noundef @.str.19, ptr noundef %97, ptr noundef %100)
  call void @errfinish(ptr noundef @.str.1, i32 noundef 1156, ptr noundef @__func__.CreateUserMapping)
  br label %102

102:                                              ; preds = %96, %86, %84
  unreachable

103:                                              ; No predecessors!
  br label %104

104:                                              ; preds = %103
  br label %105

105:                                              ; preds = %104
  br label %106

106:                                              ; preds = %105, %32
  %107 = load ptr, ptr %13, align 8
  %108 = getelementptr inbounds nuw %struct.ForeignServer, ptr %107, i32 0, i32 1
  %109 = load i32, ptr %108, align 4
  %110 = call ptr @GetForeignDataWrapper(i32 noundef %109)
  store ptr %110, ptr %14, align 8
  %111 = getelementptr inbounds [4 x i64], ptr %6, i64 0, i64 0
  call void @llvm.memset.p0.i64(ptr align 16 %111, i8 0, i64 32, i1 false)
  %112 = getelementptr inbounds [4 x i8], ptr %7, i64 0, i64 0
  call void @llvm.memset.p0.i64(ptr align 1 %112, i8 0, i64 4, i1 false)
  %113 = load ptr, ptr %4, align 8
  %114 = call i32 @GetNewOidWithIndex(ptr noundef %113, i32 noundef 174, i16 noundef signext 1)
  store i32 %114, ptr %10, align 4
  %115 = load i32, ptr %10, align 4
  %116 = call i64 @ObjectIdGetDatum(i32 noundef %115)
  %117 = getelementptr inbounds [4 x i64], ptr %6, i64 0, i64 0
  store i64 %116, ptr %117, align 16
  %118 = load i32, ptr %9, align 4
  %119 = call i64 @ObjectIdGetDatum(i32 noundef %118)
  %120 = getelementptr inbounds [4 x i64], ptr %6, i64 0, i64 1
  store i64 %119, ptr %120, align 8
  %121 = load ptr, ptr %13, align 8
  %122 = getelementptr inbounds nuw %struct.ForeignServer, ptr %121, i32 0, i32 0
  %123 = load i32, ptr %122, align 8
  %124 = call i64 @ObjectIdGetDatum(i32 noundef %123)
  %125 = getelementptr inbounds [4 x i64], ptr %6, i64 0, i64 2
  store i64 %124, ptr %125, align 16
  %126 = call i64 @PointerGetDatum(ptr noundef null)
  %127 = load ptr, ptr %3, align 8
  %128 = getelementptr inbounds nuw %struct.CreateUserMappingStmt, ptr %127, i32 0, i32 4
  %129 = load ptr, ptr %128, align 8
  %130 = load ptr, ptr %14, align 8
  %131 = getelementptr inbounds nuw %struct.ForeignDataWrapper, ptr %130, i32 0, i32 4
  %132 = load i32, ptr %131, align 4
  %133 = call i64 @transformGenericOptions(i32 noundef 1418, i64 noundef %126, ptr noundef %129, i32 noundef %132)
  store i64 %133, ptr %5, align 8
  %134 = load i64, ptr %5, align 8
  %135 = call ptr @DatumGetPointer(i64 noundef %134)
  %136 = icmp ne ptr %135, null
  br i1 %136, label %137, label %140

137:                                              ; preds = %106
  %138 = load i64, ptr %5, align 8
  %139 = getelementptr inbounds [4 x i64], ptr %6, i64 0, i64 3
  store i64 %138, ptr %139, align 8
  br label %142

140:                                              ; preds = %106
  %141 = getelementptr inbounds [4 x i8], ptr %7, i64 0, i64 3
  store i8 1, ptr %141, align 1
  br label %142

142:                                              ; preds = %140, %137
  %143 = load ptr, ptr %4, align 8
  %144 = getelementptr inbounds nuw %struct.RelationData, ptr %143, i32 0, i32 14
  %145 = load ptr, ptr %144, align 8
  %146 = getelementptr inbounds [4 x i64], ptr %6, i64 0, i64 0
  %147 = getelementptr inbounds [4 x i8], ptr %7, i64 0, i64 0
  %148 = call ptr @heap_form_tuple(ptr noundef %145, ptr noundef %146, ptr noundef %147)
  store ptr %148, ptr %8, align 8
  %149 = load ptr, ptr %4, align 8
  %150 = load ptr, ptr %8, align 8
  call void @CatalogTupleInsert(ptr noundef %149, ptr noundef %150)
  %151 = load ptr, ptr %8, align 8
  call void @heap_freetuple(ptr noundef %151)
  %152 = getelementptr inbounds nuw %struct.ObjectAddress, ptr %11, i32 0, i32 0
  store i32 1418, ptr %152, align 4
  %153 = load i32, ptr %10, align 4
  %154 = getelementptr inbounds nuw %struct.ObjectAddress, ptr %11, i32 0, i32 1
  store i32 %153, ptr %154, align 4
  %155 = getelementptr inbounds nuw %struct.ObjectAddress, ptr %11, i32 0, i32 2
  store i32 0, ptr %155, align 4
  %156 = getelementptr inbounds nuw %struct.ObjectAddress, ptr %12, i32 0, i32 0
  store i32 1417, ptr %156, align 4
  %157 = load ptr, ptr %13, align 8
  %158 = getelementptr inbounds nuw %struct.ForeignServer, ptr %157, i32 0, i32 0
  %159 = load i32, ptr %158, align 8
  %160 = getelementptr inbounds nuw %struct.ObjectAddress, ptr %12, i32 0, i32 1
  store i32 %159, ptr %160, align 4
  %161 = getelementptr inbounds nuw %struct.ObjectAddress, ptr %12, i32 0, i32 2
  store i32 0, ptr %161, align 4
  call void @recordDependencyOn(ptr noundef %11, ptr noundef %12, i32 noundef 110)
  %162 = load i32, ptr %9, align 4
  %163 = icmp ne i32 %162, 0
  br i1 %163, label %164, label %167

164:                                              ; preds = %142
  %165 = load i32, ptr %10, align 4
  %166 = load i32, ptr %9, align 4
  call void @recordDependencyOnOwner(i32 noundef 1418, i32 noundef %165, i32 noundef %166)
  br label %167

167:                                              ; preds = %164, %142
  br label %168

168:                                              ; preds = %167
  %169 = load ptr, ptr @object_access_hook, align 8
  %170 = icmp ne ptr %169, null
  br i1 %170, label %171, label %173

171:                                              ; preds = %168
  %172 = load i32, ptr %10, align 4
  call void @RunObjectPostCreateHook(i32 noundef 1418, i32 noundef %172, i32 noundef 0, i1 noundef zeroext false)
  br label %173

173:                                              ; preds = %171, %168
  br label %174

174:                                              ; preds = %173
  br label %175

175:                                              ; preds = %174
  %176 = load ptr, ptr %4, align 8
  call void @table_close(ptr noundef %176, i32 noundef 3)
  call void @llvm.memcpy.p0.p0.i64(ptr align 4 %2, ptr align 4 %11, i64 12, i1 false)
  store i32 1, ptr %16, align 4
  br label %177

177:                                              ; preds = %175, %80
  call void @llvm.lifetime.end.p0(i64 8, ptr %15) #9
  call void @llvm.lifetime.end.p0(i64 8, ptr %14) #9
  call void @llvm.lifetime.end.p0(i64 8, ptr %13) #9
  call void @llvm.lifetime.end.p0(i64 12, ptr %12) #9
  call void @llvm.lifetime.end.p0(i64 12, ptr %11) #9
  call void @llvm.lifetime.end.p0(i64 4, ptr %10) #9
  call void @llvm.lifetime.end.p0(i64 4, ptr %9) #9
  call void @llvm.lifetime.end.p0(i64 8, ptr %8) #9
  call void @llvm.lifetime.end.p0(i64 4, ptr %7) #9
  call void @llvm.lifetime.end.p0(i64 32, ptr %6) #9
  call void @llvm.lifetime.end.p0(i64 8, ptr %5) #9
  call void @llvm.lifetime.end.p0(i64 8, ptr %4) #9
  call void @llvm.memcpy.p0.p0.i64(ptr align 8 %17, ptr align 4 %2, i64 12, i1 false)
  %178 = load { i64, i32 }, ptr %17, align 8
  ret { i64, i32 } %178
}