; Function Attrs: nounwind uwtable
define dso_local { i64, i32 } @CreateUserMapping(ptr noundef readonly captures(none) %0) local_unnamed_addr #0 {
  %2 = alloca [4 x i64], align 16
  %3 = alloca [4 x i8], align 4
  %4 = alloca %struct.ObjectAddress, align 4
  %5 = alloca %struct.ObjectAddress, align 4
  call void @llvm.lifetime.start.p0(i64 32, ptr nonnull %2) #9
  call void @llvm.lifetime.start.p0(i64 4, ptr nonnull %3) #9
  call void @llvm.lifetime.start.p0(i64 12, ptr nonnull %4) #9
  call void @llvm.lifetime.start.p0(i64 12, ptr nonnull %5) #9
  %6 = getelementptr inbounds nuw i8, ptr %0, i64 8
  %7 = load ptr, ptr %6, align 8
  %8 = tail call ptr @table_open(i32 noundef 1418, i32 noundef 3) #9
  %9 = getelementptr inbounds nuw i8, ptr %7, i64 4
  %10 = load i32, ptr %9, align 4
  %11 = icmp eq i32 %10, 4
  br i1 %11, label %15, label %12

12:                                               ; preds = %1
  %13 = load ptr, ptr %6, align 8
  %14 = tail call i32 @get_rolespec_oid(ptr noundef %13, i1 noundef zeroext false) #9
  br label %15

15:                                               ; preds = %1, %12
  %.0 = phi i32 [ %14, %12 ], [ 0, %1 ]
  %16 = getelementptr inbounds nuw i8, ptr %0, i64 16
  %17 = load ptr, ptr %16, align 8
  %18 = tail call ptr @GetForeignServerByName(ptr noundef %17, i1 noundef zeroext false) #9
  %19 = load i32, ptr %18, align 8
  %20 = load ptr, ptr %16, align 8
  %21 = tail call i32 @GetUserId() #9
  %22 = tail call zeroext i1 @object_ownercheck(i32 noundef 1417, i32 noundef %19, i32 noundef %21) #9
  br i1 %22, label %user_mapping_ddl_aclcheck.exit, label %23

23:                                               ; preds = %15
  %24 = icmp eq i32 %.0, %21
  br i1 %24, label %25, label %.sink.split.i

25:                                               ; preds = %23
  %26 = tail call i32 @object_aclcheck(i32 noundef 1417, i32 noundef %19, i32 noundef %.0, i64 noundef 256) #9
  %.not.i = icmp eq i32 %26, 0
  br i1 %.not.i, label %user_mapping_ddl_aclcheck.exit, label %.sink.split.i

.sink.split.i:                                    ; preds = %25, %23
  %.sink.i = phi i32 [ %26, %25 ], [ 2, %23 ]
  tail call void @aclcheck_error(i32 noundef %.sink.i, i32 noundef 17, ptr noundef %20) #9
  br label %user_mapping_ddl_aclcheck.exit

user_mapping_ddl_aclcheck.exit:                   ; preds = %15, %25, %.sink.split.i
  %27 = zext i32 %.0 to i64
  %28 = load i32, ptr %18, align 8
  %29 = zext i32 %28 to i64
  %30 = tail call i32 @GetSysCacheOid(i32 noundef 84, i16 noundef signext 1, i64 noundef %27, i64 noundef %29, i64 noundef 0, i64 noundef 0) #9
  %.not = icmp eq i32 %30, 0
  br i1 %.not, label %55, label %31

31:                                               ; preds = %user_mapping_ddl_aclcheck.exit
  %32 = getelementptr inbounds nuw i8, ptr %0, i64 24
  %33 = load i8, ptr %32, align 8, !range !4, !noundef !5
  %34 = trunc nuw i8 %33 to i1
  br i1 %34, label %35, label %46

35:                                               ; preds = %31
  %36 = tail call zeroext i1 @errstart(i32 noundef 18, ptr noundef null) #9
  br i1 %36, label %37, label %45

37:                                               ; preds = %35
  %38 = tail call i32 @errcode(i32 noundef 290948) #9
  %.not44 = icmp eq i32 %.0, 0
  br i1 %.not44, label %41, label %39

39:                                               ; preds = %37
  %40 = tail call ptr @GetUserNameFromId(i32 noundef %.0, i1 noundef zeroext false) #9
  br label %41

41:                                               ; preds = %37, %39
  %42 = phi ptr [ %40, %39 ], [ @.str.18, %37 ]
  %43 = load ptr, ptr %16, align 8
  %44 = tail call i32 (ptr, ...) @errmsg(ptr noundef nonnull @.str.17, ptr noundef %42, ptr noundef %43) #9
  tail call void @errfinish(ptr noundef nonnull @.str.1, i32 noundef 1146, ptr noundef nonnull @__func__.CreateUserMapping) #9
  br label %45

45:                                               ; preds = %41, %35
  tail call void @table_close(ptr noundef %8, i32 noundef 3) #9
  %.sroa.3.0.copyload = load i32, ptr getelementptr inbounds nuw (i8, ptr @InvalidObjectAddress, i64 8), align 4
  br label %89

46:                                               ; preds = %31
  %47 = tail call zeroext i1 @errstart_cold(i32 noundef 21, ptr noundef null) #11
  tail call void @llvm.assume(i1 %47)
  %48 = tail call i32 @errcode(i32 noundef 290948) #9
  %.not43 = icmp eq i32 %.0, 0
  br i1 %.not43, label %51, label %49

49:                                               ; preds = %46
  %50 = tail call ptr @GetUserNameFromId(i32 noundef %.0, i1 noundef zeroext false) #9
  br label %51

51:                                               ; preds = %46, %49
  %52 = phi ptr [ %50, %49 ], [ @.str.18, %46 ]
  %53 = load ptr, ptr %16, align 8
  %54 = tail call i32 (ptr, ...) @errmsg(ptr noundef nonnull @.str.19, ptr noundef %52, ptr noundef %53) #9
  tail call void @errfinish(ptr noundef nonnull @.str.1, i32 noundef 1156, ptr noundef nonnull @__func__.CreateUserMapping) #9
  unreachable

55:                                               ; preds = %user_mapping_ddl_aclcheck.exit
  %56 = getelementptr inbounds nuw i8, ptr %18, i64 4
  %57 = load i32, ptr %56, align 4
  %58 = tail call ptr @GetForeignDataWrapper(i32 noundef %57) #9
  %59 = getelementptr inbounds nuw i8, ptr %2, i64 16
  call void @llvm.memset.p0.i64(ptr noundef nonnull align 16 dereferenceable(32) %59, i8 0, i64 16, i1 false)
  store i32 0, ptr %3, align 4
  %60 = tail call i32 @GetNewOidWithIndex(ptr noundef %8, i32 noundef 174, i16 noundef signext 1) #9
  %61 = zext i32 %60 to i64
  store i64 %61, ptr %2, align 16
  %62 = getelementptr inbounds nuw i8, ptr %2, i64 8
  store i64 %27, ptr %62, align 8
  %63 = load i32, ptr %18, align 8
  %64 = zext i32 %63 to i64
  %65 = getelementptr inbounds nuw i8, ptr %2, i64 16
  store i64 %64, ptr %65, align 16
  %66 = getelementptr inbounds nuw i8, ptr %0, i64 32
  %67 = load ptr, ptr %66, align 8
  %68 = getelementptr inbounds nuw i8, ptr %58, i64 20
  %69 = load i32, ptr %68, align 4
  %70 = tail call i64 @transformGenericOptions(i32 noundef 1418, i64 noundef 0, ptr noundef %67, i32 noundef %69)
  %.not40 = icmp eq i64 %70, 0
  br i1 %.not40, label %73, label %71

71:                                               ; preds = %55
  %72 = getelementptr inbounds nuw i8, ptr %2, i64 24
  store i64 %70, ptr %72, align 8
  br label %75

73:                                               ; preds = %55
  %74 = getelementptr inbounds nuw i8, ptr %3, i64 3
  store i8 1, ptr %74, align 1
  br label %75

75:                                               ; preds = %73, %71
  %76 = getelementptr inbounds nuw i8, ptr %8, i64 64
  %77 = load ptr, ptr %76, align 8
  %78 = call ptr @heap_form_tuple(ptr noundef %77, ptr noundef nonnull %2, ptr noundef nonnull %3) #9
  call void @CatalogTupleInsert(ptr noundef %8, ptr noundef %78) #9
  call void @heap_freetuple(ptr noundef %78) #9
  store i32 1418, ptr %4, align 4
  %79 = getelementptr inbounds nuw i8, ptr %4, i64 4
  store i32 %60, ptr %79, align 4
  %80 = getelementptr inbounds nuw i8, ptr %4, i64 8
  store i32 0, ptr %80, align 4
  store i32 1417, ptr %5, align 4
  %81 = load i32, ptr %18, align 8
  %82 = getelementptr inbounds nuw i8, ptr %5, i64 4
  store i32 %81, ptr %82, align 4
  %83 = getelementptr inbounds nuw i8, ptr %5, i64 8
  store i32 0, ptr %83, align 4
  call void @recordDependencyOn(ptr noundef nonnull %4, ptr noundef nonnull %5, i32 noundef 110) #9
  %.not41 = icmp eq i32 %.0, 0
  br i1 %.not41, label %85, label %84

84:                                               ; preds = %75
  call void @recordDependencyOnOwner(i32 noundef 1418, i32 noundef %60, i32 noundef %.0) #9
  br label %85

85:                                               ; preds = %75, %84
  %86 = load ptr, ptr @object_access_hook, align 8
  %.not42 = icmp eq ptr %86, null
  br i1 %.not42, label %88, label %87

87:                                               ; preds = %85
  call void @RunObjectPostCreateHook(i32 noundef 1418, i32 noundef %60, i32 noundef 0, i1 noundef zeroext false) #9
  br label %88

88:                                               ; preds = %87, %85
  call void @table_close(ptr noundef nonnull %8, i32 noundef 3) #9
  %.sroa.3.0.copyload39 = load i32, ptr %80, align 4
  br label %89

89:                                               ; preds = %88, %45
  %.sroa.037.0.in = phi ptr [ @InvalidObjectAddress, %45 ], [ %4, %88 ]
  %.sroa.3.0 = phi i32 [ %.sroa.3.0.copyload, %45 ], [ %.sroa.3.0.copyload39, %88 ]
  %.sroa.037.0 = load i64, ptr %.sroa.037.0.in, align 4
  call void @llvm.lifetime.end.p0(i64 12, ptr nonnull %5) #9
  call void @llvm.lifetime.end.p0(i64 12, ptr nonnull %4) #9
  call void @llvm.lifetime.end.p0(i64 4, ptr nonnull %3) #9
  call void @llvm.lifetime.end.p0(i64 32, ptr nonnull %2) #9
  %.fca.0.insert = insertvalue { i64, i32 } poison, i64 %.sroa.037.0, 0
  %.fca.1.insert = insertvalue { i64, i32 } %.fca.0.insert, i32 %.sroa.3.0, 1
  ret { i64, i32 } %.fca.1.insert
}